target datalayout = "e-m:e-p270:32:32-p271:32:32-p272:64:64-i64:64-i128:128-f80:128-n8:16:32:64-S128"
target triple = "x86_64-pc-linux-gnu"

%struct.httpreq = type { [24 x i8], ptr, ptr, ptr, %struct.dynhds, %struct.dynhds }
%struct.dynhds = type { ptr, i64, i64, i64, i64, i64, i32 }

@.str = private unnamed_addr constant [24 x i8] c"%s %s%s%s%s HTTP/1.%d\0D\0A\00", align 1
@.str.1 = private unnamed_addr constant [1 x i8] zeroinitializer, align 1
@.str.2 = private unnamed_addr constant [4 x i8] c"://\00", align 1
@.str.3 = private unnamed_addr constant [3 x i8] c"\0D\0A\00", align 1

; Function Attrs: nounwind uwtable
define dso_local i32 @Curl_h1_req_write_head(ptr noundef %0, i32 noundef %1, ptr noundef %2) #0 {
  %4 = alloca ptr, align 8
  %5 = alloca i32, align 4
  %6 = alloca ptr, align 8
  %7 = alloca i32, align 4
  store ptr %0, ptr %4, align 8
  store i32 %1, ptr %5, align 4
  store ptr %2, ptr %6, align 8
  %8 = load ptr, ptr %6, align 8
  %9 = load ptr, ptr %4, align 8
  %10 = getelementptr inbounds %struct.httpreq, ptr %9, i32 0, i32 0
  %11 = getelementptr inbounds [24 x i8], ptr %10, i64 0, i64 0
  %12 = load ptr, ptr %4, align 8
  %13 = getelementptr inbounds %struct.httpreq, ptr %12, i32 0, i32 1
  %14 = load ptr, ptr %13, align 8
  %15 = icmp ne ptr %14, null
  br i1 %15, label %16, label %20

16:                                               ; preds = %3
  %17 = load ptr, ptr %4, align 8
  %18 = getelementptr inbounds %struct.httpreq, ptr %17, i32 0, i32 1
  %19 = load ptr, ptr %18, align 8
  br label %21

20:                                               ; preds = %3
  br label %21

21:                                               ; preds = %20, %16
  %22 = phi ptr [ %19, %16 ], [ @.str.1, %20 ]
  %23 = load ptr, ptr %4, align 8
  %24 = getelementptr inbounds %struct.httpreq, ptr %23, i32 0, i32 1
  %25 = load ptr, ptr %24, align 8
  %26 = icmp ne ptr %25, null
  %27 = select i1 %26, ptr @.str.2, ptr @.str.1
  %28 = load ptr, ptr %4, align 8
  %29 = getelementptr inbounds %struct.httpreq, ptr %28, i32 0, i32 2
  %30 = load ptr, ptr %29, align 8
  %31 = icmp ne ptr %30, null
  br i1 %31, label %32, label %36

32:                                               ; preds = %21
  %33 = load ptr, ptr %4, align 8
  %34 = getelementptr inbounds %struct.httpreq, ptr %33, i32 0, i32 2
  %35 = load ptr, ptr %34, align 8
  br label %37

36:                                               ; preds = %21
  br label %37

37:                                               ; preds = %36, %32
  %38 = phi ptr [ %35, %32 ], [ @.str.1, %36 ]
  %39 = load ptr, ptr %4, align 8
  %40 = getelementptr inbounds %struct.httpreq, ptr %39, i32 0, i32 3
  %41 = load ptr, ptr %40, align 8
  %42 = icmp ne ptr %41, null
  br i1 %42, label %43, label %47

43:                                               ; preds = %37
  %44 = load ptr, ptr %4, align 8
  %45 = getelementptr inbounds %struct.httpreq, ptr %44, i32 0, i32 3
  %46 = load ptr, ptr %45, align 8
  br label %48

47:                                               ; preds = %37
  br label %48

48:                                               ; preds = %47, %43
  %49 = phi ptr [ %46, %43 ], [ @.str.1, %47 ]
  %50 = load i32, ptr %5, align 4
  %51 = call i32 (ptr, ptr, ...) @Curl_dyn_addf(ptr noundef %8, ptr noundef @.str, ptr noundef %11, ptr noundef %22, ptr noundef %27, ptr noundef %38, ptr noundef %49, i32 noundef %50)
  store i32 %51, ptr %7, align 4
  %52 = load i32, ptr %7, align 4
  %53 = icmp ne i32 %52, 0
  br i1 %53, label %54, label %55

54:                                               ; preds = %48
  br label %66

55:                                               ; preds = %48
  %56 = load ptr, ptr %4, align 8
  %57 = getelementptr inbounds %struct.httpreq, ptr %56, i32 0, i32 4
  %58 = load ptr, ptr %6, align 8
  %59 = call i32 @Curl_dynhds_h1_dprint(ptr noundef %57, ptr noundef %58)
  store i32 %59, ptr %7, align 4
  %60 = load i32, ptr %7, align 4
  %61 = icmp ne i32 %60, 0
  br i1 %61, label %62, label %63

62:                                               ; preds = %55
  br label %66

63:                                               ; preds = %55
  %64 = load ptr, ptr %6, align 8
  %65 = call i32 @Curl_dyn_addn(ptr noundef %64, ptr noundef @.str.3, i64 noundef 2)
  store i32 %65, ptr %7, align 4
  br label %66

66:                                               ; preds = %63, %62, %54
  %67 = load i32, ptr %7, align 4
  ret i32 %67
}